target datalayout = "e-m:e-p270:32:32-p271:32:32-p272:64:64-i64:64-i128:128-f80:128-n8:16:32:64-S128"
target triple = "x86_64-pc-linux-gnu"

%"struct.libunwind::UnwindInfoSections" = type { i64, i64, i64, i64, i64, i64 }
%"struct.libunwind::EHHeaderParser<libunwind::LocalAddressSpace>::EHHeaderInfo" = type { i64, i64, i64, i8 }
%"struct.libunwind::dl_iterate_cb_data" = type { ptr, ptr, i64 }
%struct.dl_phdr_info = type { i64, ptr, ptr, i16, i64, i64, i64, ptr }
%struct.Elf64_Phdr = type { i32, i32, i64, i64, i64, i64, i64, i64 }

; Function Attrs: mustprogress nounwind uwtable
define internal noundef zeroext i1 @_ZN9libunwindL25checkForUnwindInfoSegmentEPK10Elf64_PhdrmPNS_18dl_iterate_cb_dataE(ptr noundef %0, i64 noundef %1, ptr noundef %2) #0 {
  %4 = alloca i1, align 1
  %5 = alloca ptr, align 8
  %6 = alloca i64, align 8
  %7 = alloca ptr, align 8
  %8 = alloca %"struct.libunwind::EHHeaderParser<libunwind::LocalAddressSpace>::EHHeaderInfo", align 8
  %9 = alloca i64, align 8
  %10 = alloca i32, align 4
  store ptr %0, ptr %5, align 8, !tbaa !50
  store i64 %1, ptr %6, align 8, !tbaa !23
  store ptr %2, ptr %7, align 8, !tbaa !197
  %11 = load ptr, ptr %5, align 8, !tbaa !50
  %12 = getelementptr inbounds nuw %struct.Elf64_Phdr, ptr %11, i32 0, i32 0
  %13 = load i32, ptr %12, align 8, !tbaa !205
  %14 = icmp eq i32 %13, 1685382480
  br i1 %14, label %15, label %58

15:                                               ; preds = %3
  call void @llvm.lifetime.start.p0(i64 32, ptr %8) #9
  call void @llvm.lifetime.start.p0(i64 8, ptr %9) #9
  %16 = load i64, ptr %6, align 8, !tbaa !23
  %17 = load ptr, ptr %5, align 8, !tbaa !50
  %18 = getelementptr inbounds nuw %struct.Elf64_Phdr, ptr %17, i32 0, i32 3
  %19 = load i64, ptr %18, align 8, !tbaa !207
  %20 = add i64 %16, %19
  store i64 %20, ptr %9, align 8, !tbaa !23
  %21 = load i64, ptr %9, align 8, !tbaa !23
  %22 = load ptr, ptr %7, align 8, !tbaa !197
  %23 = getelementptr inbounds nuw %"struct.libunwind::dl_iterate_cb_data", ptr %22, i32 0, i32 1
  %24 = load ptr, ptr %23, align 8, !tbaa !178
  %25 = getelementptr inbounds nuw %"struct.libunwind::UnwindInfoSections", ptr %24, i32 0, i32 4
  store i64 %21, ptr %25, align 8, !tbaa !171
  %26 = load ptr, ptr %5, align 8, !tbaa !50
  %27 = getelementptr inbounds nuw %struct.Elf64_Phdr, ptr %26, i32 0, i32 6
  %28 = load i64, ptr %27, align 8, !tbaa !208
  %29 = load ptr, ptr %7, align 8, !tbaa !197
  %30 = getelementptr inbounds nuw %"struct.libunwind::dl_iterate_cb_data", ptr %29, i32 0, i32 1
  %31 = load ptr, ptr %30, align 8, !tbaa !178
  %32 = getelementptr inbounds nuw %"struct.libunwind::UnwindInfoSections", ptr %31, i32 0, i32 5
  store i64 %28, ptr %32, align 8, !tbaa !172
  %33 = load ptr, ptr %7, align 8, !tbaa !197
  %34 = getelementptr inbounds nuw %"struct.libunwind::dl_iterate_cb_data", ptr %33, i32 0, i32 0
  %35 = load ptr, ptr %34, align 8, !tbaa !176
  %36 = load i64, ptr %9, align 8, !tbaa !23
  %37 = load i64, ptr %9, align 8, !tbaa !23
  %38 = load ptr, ptr %5, align 8, !tbaa !50
  %39 = getelementptr inbounds nuw %struct.Elf64_Phdr, ptr %38, i32 0, i32 6
  %40 = load i64, ptr %39, align 8, !tbaa !208
  %41 = add i64 %37, %40
  %42 = call noundef zeroext i1 @_ZN9libunwind14EHHeaderParserINS_17LocalAddressSpaceEE11decodeEHHdrERS1_mmRNS2_12EHHeaderInfoE(ptr noundef nonnull align 1 dereferenceable(1) %35, i64 noundef %36, i64 noundef %41, ptr noundef nonnull align 8 dereferenceable(32) %8)
  br i1 %42, label %43, label %54

43:                                               ; preds = %15
  %44 = getelementptr inbounds nuw %"struct.libunwind::EHHeaderParser<libunwind::LocalAddressSpace>::EHHeaderInfo", ptr %8, i32 0, i32 0
  %45 = load i64, ptr %44, align 8, !tbaa !173
  %46 = load ptr, ptr %7, align 8, !tbaa !197
  %47 = getelementptr inbounds nuw %"struct.libunwind::dl_iterate_cb_data", ptr %46, i32 0, i32 1
  %48 = load ptr, ptr %47, align 8, !tbaa !178
  %49 = getelementptr inbounds nuw %"struct.libunwind::UnwindInfoSections", ptr %48, i32 0, i32 2
  store i64 %45, ptr %49, align 8, !tbaa !95
  %50 = load ptr, ptr %7, align 8, !tbaa !197
  %51 = getelementptr inbounds nuw %"struct.libunwind::dl_iterate_cb_data", ptr %50, i32 0, i32 1
  %52 = load ptr, ptr %51, align 8, !tbaa !178
  %53 = getelementptr inbounds nuw %"struct.libunwind::UnwindInfoSections", ptr %52, i32 0, i32 3
  store i64 -1, ptr %53, align 8, !tbaa !175
  store i1 true, ptr %4, align 1
  store i32 1, ptr %10, align 4
  br label %55

54:                                               ; preds = %15
  store i32 0, ptr %10, align 4
  br label %55

55:                                               ; preds = %54, %43
  call void @llvm.lifetime.end.p0(i64 8, ptr %9) #9
  call void @llvm.lifetime.end.p0(i64 32, ptr %8) #9
  %56 = load i32, ptr %10, align 4
  switch i32 %56, label %61 [
    i32 0, label %57
    i32 1, label %59
  ]

57:                                               ; preds = %55
  br label %58

58:                                               ; preds = %57, %3
  store i1 false, ptr %4, align 1
  br label %59

59:                                               ; preds = %58, %55
  %60 = load i1, ptr %4, align 1
  ret i1 %60

61:                                               ; preds = %55
  unreachable
}

; Function Attrs: mustprogress nounwind uwtable
define internal noundef zeroext i1 @_ZN9libunwindL18checkAddrInSegmentEPK10Elf64_PhdrmPNS_18dl_iterate_cb_dataE(ptr noundef %0, i64 noundef %1, ptr noundef %2) #0 {
  %4 = alloca i1, align 1
  %5 = alloca ptr, align 8
  %6 = alloca i64, align 8
  %7 = alloca ptr, align 8
  %8 = alloca i64, align 8
  %9 = alloca i64, align 8
  %10 = alloca i32, align 4
  store ptr %0, ptr %5, align 8, !tbaa !50
  store i64 %1, ptr %6, align 8, !tbaa !23
  store ptr %2, ptr %7, align 8, !tbaa !197
  %11 = load ptr, ptr %5, align 8, !tbaa !50
  %12 = getelementptr inbounds nuw %struct.Elf64_Phdr, ptr %11, i32 0, i32 0
  %13 = load i32, ptr %12, align 8, !tbaa !205
  %14 = icmp eq i32 %13, 1
  br i1 %14, label %15, label %54

15:                                               ; preds = %3
  call void @llvm.lifetime.start.p0(i64 8, ptr %8) #9
  %16 = load i64, ptr %6, align 8, !tbaa !23
  %17 = load ptr, ptr %5, align 8, !tbaa !50
  %18 = getelementptr inbounds nuw %struct.Elf64_Phdr, ptr %17, i32 0, i32 3
  %19 = load i64, ptr %18, align 8, !tbaa !207
  %20 = add i64 %16, %19
  store i64 %20, ptr %8, align 8, !tbaa !23
  call void @llvm.lifetime.start.p0(i64 8, ptr %9) #9
  %21 = load i64, ptr %8, align 8, !tbaa !23
  %22 = load ptr, ptr %5, align 8, !tbaa !50
  %23 = getelementptr inbounds nuw %struct.Elf64_Phdr, ptr %22, i32 0, i32 6
  %24 = load i64, ptr %23, align 8, !tbaa !208
  %25 = add i64 %21, %24
  store i64 %25, ptr %9, align 8, !tbaa !23
  %26 = load ptr, ptr %7, align 8, !tbaa !197
  %27 = getelementptr inbounds nuw %"struct.libunwind::dl_iterate_cb_data", ptr %26, i32 0, i32 2
  %28 = load i64, ptr %27, align 8, !tbaa !179
  %29 = load i64, ptr %8, align 8, !tbaa !23
  %30 = icmp uge i64 %28, %29
  br i1 %30, label %31, label %50

31:                                               ; preds = %15
  %32 = load ptr, ptr %7, align 8, !tbaa !197
  %33 = getelementptr inbounds nuw %"struct.libunwind::dl_iterate_cb_data", ptr %32, i32 0, i32 2
  %34 = load i64, ptr %33, align 8, !tbaa !179
  %35 = load i64, ptr %9, align 8, !tbaa !23
  %36 = icmp ult i64 %34, %35
  br i1 %36, label %37, label %50

37:                                               ; preds = %31
  %38 = load i64, ptr %8, align 8, !tbaa !23
  %39 = load ptr, ptr %7, align 8, !tbaa !197
  %40 = getelementptr inbounds nuw %"struct.libunwind::dl_iterate_cb_data", ptr %39, i32 0, i32 1
  %41 = load ptr, ptr %40, align 8, !tbaa !178
  %42 = getelementptr inbounds nuw %"struct.libunwind::UnwindInfoSections", ptr %41, i32 0, i32 0
  store i64 %38, ptr %42, align 8, !tbaa !168
  %43 = load ptr, ptr %5, align 8, !tbaa !50
  %44 = getelementptr inbounds nuw %struct.Elf64_Phdr, ptr %43, i32 0, i32 6
  %45 = load i64, ptr %44, align 8, !tbaa !208
  %46 = load ptr, ptr %7, align 8, !tbaa !197
  %47 = getelementptr inbounds nuw %"struct.libunwind::dl_iterate_cb_data", ptr %46, i32 0, i32 1
  %48 = load ptr, ptr %47, align 8, !tbaa !178
  %49 = getelementptr inbounds nuw %"struct.libunwind::UnwindInfoSections", ptr %48, i32 0, i32 1
  store i64 %45, ptr %49, align 8, !tbaa !170
  store i1 true, ptr %4, align 1
  store i32 1, ptr %10, align 4
  br label %51

50:                                               ; preds = %31, %15
  store i32 0, ptr %10, align 4
  br label %51

51:                                               ; preds = %50, %37
  call void @llvm.lifetime.end.p0(i64 8, ptr %9) #9
  call void @llvm.lifetime.end.p0(i64 8, ptr %8) #9
  %52 = load i32, ptr %10, align 4
  switch i32 %52, label %57 [
    i32 0, label %53
    i32 1, label %55
  ]

53:                                               ; preds = %51
  br label %54

54:                                               ; preds = %53, %3
  store i1 false, ptr %4, align 1
  br label %55

55:                                               ; preds = %54, %51
  %56 = load i1, ptr %4, align 1
  ret i1 %56

57:                                               ; preds = %51
  unreachable
}

; Function Attrs: mustprogress nounwind uwtable
define internal noundef i32 @_ZN9libunwindL24findUnwindSectionsByPhdrEP12dl_phdr_infomPv(ptr noundef %0, i64 noundef %1, ptr noundef %2) #0 {
  %4 = alloca i32, align 4
  %5 = alloca ptr, align 8
  %6 = alloca i64, align 8
  %7 = alloca ptr, align 8
  %8 = alloca ptr, align 8
  %9 = alloca i32, align 4
  %10 = alloca i64, align 8
  %11 = alloca i8, align 1
  %12 = alloca i16, align 2
  %13 = alloca i8, align 1
  %14 = alloca i16, align 2
  %15 = alloca ptr, align 8
  store ptr %0, ptr %5, align 8, !tbaa !195
  store i64 %1, ptr %6, align 8, !tbaa !23
  store ptr %2, ptr %7, align 8, !tbaa !50
  call void @llvm.lifetime.start.p0(i64 8, ptr %8) #9
  %16 = load ptr, ptr %7, align 8, !tbaa !50
  store ptr %16, ptr %8, align 8, !tbaa !197
  %17 = load ptr, ptr %5, align 8, !tbaa !195
  %18 = getelementptr inbounds nuw %struct.dl_phdr_info, ptr %17, i32 0, i32 3
  %19 = load i16, ptr %18, align 8, !tbaa !199
  %20 = zext i16 %19 to i32
  %21 = icmp eq i32 %20, 0
  br i1 %21, label %30, label %22

22:                                               ; preds = %3
  %23 = load ptr, ptr %8, align 8, !tbaa !197
  %24 = getelementptr inbounds nuw %"struct.libunwind::dl_iterate_cb_data", ptr %23, i32 0, i32 2
  %25 = load i64, ptr %24, align 8, !tbaa !179
  %26 = load ptr, ptr %5, align 8, !tbaa !195
  %27 = getelementptr inbounds nuw %struct.dl_phdr_info, ptr %26, i32 0, i32 0
  %28 = load i64, ptr %27, align 8, !tbaa !201
  %29 = icmp ult i64 %25, %28
  br i1 %29, label %30, label %31

30:                                               ; preds = %22, %3
  store i32 0, ptr %4, align 4
  store i32 1, ptr %9, align 4
  br label %102

31:                                               ; preds = %22
  call void @llvm.lifetime.start.p0(i64 8, ptr %10) #9
  %32 = load ptr, ptr %5, align 8, !tbaa !195
  %33 = getelementptr inbounds nuw %struct.dl_phdr_info, ptr %32, i32 0, i32 0
  %34 = load i64, ptr %33, align 8, !tbaa !201
  store i64 %34, ptr %10, align 8, !tbaa !23
  call void @llvm.lifetime.start.p0(i64 1, ptr %11) #9
  store i8 0, ptr %11, align 1, !tbaa !19
  call void @llvm.lifetime.start.p0(i64 2, ptr %12) #9
  store i16 0, ptr %12, align 2, !tbaa !150
  br label %35

35:                                               ; preds = %56, %31
  %36 = load i16, ptr %12, align 2, !tbaa !150
  %37 = zext i16 %36 to i32
  %38 = load ptr, ptr %5, align 8, !tbaa !195
  %39 = getelementptr inbounds nuw %struct.dl_phdr_info, ptr %38, i32 0, i32 3
  %40 = load i16, ptr %39, align 8, !tbaa !199
  %41 = zext i16 %40 to i32
  %42 = icmp slt i32 %37, %41
  br i1 %42, label %44, label %43

43:                                               ; preds = %35
  store i32 2, ptr %9, align 4
  br label %59

44:                                               ; preds = %35
  %45 = load ptr, ptr %5, align 8, !tbaa !195
  %46 = getelementptr inbounds nuw %struct.dl_phdr_info, ptr %45, i32 0, i32 2
  %47 = load ptr, ptr %46, align 8, !tbaa !202
  %48 = load i16, ptr %12, align 2, !tbaa !150
  %49 = zext i16 %48 to i64
  %50 = getelementptr inbounds nuw %struct.Elf64_Phdr, ptr %47, i64 %49
  %51 = load i64, ptr %10, align 8, !tbaa !23
  %52 = load ptr, ptr %8, align 8, !tbaa !197
  %53 = call noundef zeroext i1 @_ZN9libunwindL18checkAddrInSegmentEPK10Elf64_PhdrmPNS_18dl_iterate_cb_dataE(ptr noundef %50, i64 noundef %51, ptr noundef %52)
  br i1 %53, label %54, label %55

54:                                               ; preds = %44
  store i8 1, ptr %11, align 1, !tbaa !19
  store i32 2, ptr %9, align 4
  br label %59

55:                                               ; preds = %44
  br label %56

56:                                               ; preds = %55
  %57 = load i16, ptr %12, align 2, !tbaa !150
  %58 = add i16 %57, 1
  store i16 %58, ptr %12, align 2, !tbaa !150
  br label %35, !llvm.loop !203

59:                                               ; preds = %54, %43
  call void @llvm.lifetime.end.p0(i64 2, ptr %12) #9
  br label %60

60:                                               ; preds = %59
  %61 = load i8, ptr %11, align 1, !tbaa !19, !range !21, !noundef !22
  %62 = trunc i8 %61 to i1
  br i1 %62, label %64, label %63

63:                                               ; preds = %60
  store i32 0, ptr %4, align 4
  store i32 1, ptr %9, align 4
  br label %101

64:                                               ; preds = %60
  call void @llvm.lifetime.start.p0(i64 1, ptr %13) #9
  store i8 0, ptr %13, align 1, !tbaa !19
  call void @llvm.lifetime.start.p0(i64 2, ptr %14) #9
  %65 = load ptr, ptr %5, align 8, !tbaa !195
  %66 = getelementptr inbounds nuw %struct.dl_phdr_info, ptr %65, i32 0, i32 3
  %67 = load i16, ptr %66, align 8, !tbaa !199
  store i16 %67, ptr %14, align 2, !tbaa !150
  br label %68

68:                                               ; preds = %91, %64
  %69 = load i16, ptr %14, align 2, !tbaa !150
  %70 = zext i16 %69 to i32
  %71 = icmp sgt i32 %70, 0
  br i1 %71, label %73, label %72

72:                                               ; preds = %68
  store i32 5, ptr %9, align 4
  br label %94

73:                                               ; preds = %68
  call void @llvm.lifetime.start.p0(i64 8, ptr %15) #9
  %74 = load ptr, ptr %5, align 8, !tbaa !195
  %75 = getelementptr inbounds nuw %struct.dl_phdr_info, ptr %74, i32 0, i32 2
  %76 = load ptr, ptr %75, align 8, !tbaa !202
  %77 = load i16, ptr %14, align 2, !tbaa !150
  %78 = zext i16 %77 to i32
  %79 = sub nsw i32 %78, 1
  %80 = sext i32 %79 to i64
  %81 = getelementptr inbounds %struct.Elf64_Phdr, ptr %76, i64 %80
  store ptr %81, ptr %15, align 8, !tbaa !50
  %82 = load ptr, ptr %15, align 8, !tbaa !50
  %83 = load i64, ptr %10, align 8, !tbaa !23
  %84 = load ptr, ptr %8, align 8, !tbaa !197
  %85 = call noundef zeroext i1 @_ZN9libunwindL25checkForUnwindInfoSegmentEPK10Elf64_PhdrmPNS_18dl_iterate_cb_dataE(ptr noundef %82, i64 noundef %83, ptr noundef %84)
  br i1 %85, label %86, label %87

86:                                               ; preds = %73
  store i8 1, ptr %13, align 1, !tbaa !19
  store i32 5, ptr %9, align 4
  br label %88

87:                                               ; preds = %73
  store i32 0, ptr %9, align 4
  br label %88

88:                                               ; preds = %87, %86
  call void @llvm.lifetime.end.p0(i64 8, ptr %15) #9
  %89 = load i32, ptr %9, align 4
  switch i32 %89, label %94 [
    i32 0, label %90
  ]

90:                                               ; preds = %88
  br label %91

91:                                               ; preds = %90
  %92 = load i16, ptr %14, align 2, !tbaa !150
  %93 = add i16 %92, -1
  store i16 %93, ptr %14, align 2, !tbaa !150
  br label %68, !llvm.loop !204

94:                                               ; preds = %88, %72
  call void @llvm.lifetime.end.p0(i64 2, ptr %14) #9
  br label %95

95:                                               ; preds = %94
  %96 = load i8, ptr %13, align 1, !tbaa !19, !range !21, !noundef !22
  %97 = trunc i8 %96 to i1
  br i1 %97, label %99, label %98

98:                                               ; preds = %95
  store i32 0, ptr %4, align 4
  store i32 1, ptr %9, align 4
  br label %100

99:                                               ; preds = %95
  store i32 1, ptr %4, align 4
  store i32 1, ptr %9, align 4
  br label %100

100:                                              ; preds = %99, %98
  call void @llvm.lifetime.end.p0(i64 1, ptr %13) #9
  br label %101

101:                                              ; preds = %100, %63
  call void @llvm.lifetime.end.p0(i64 1, ptr %11) #9
  call void @llvm.lifetime.end.p0(i64 8, ptr %10) #9
  br label %102

102:                                              ; preds = %101, %30
  call void @llvm.lifetime.end.p0(i64 8, ptr %8) #9
  %103 = load i32, ptr %4, align 4
  ret i32 %103
}