; Function Attrs: mustprogress nounwind uwtable
define internal noundef range(i32 0, 2) i32 @_ZN9libunwindL24findUnwindSectionsByPhdrEP12dl_phdr_infomPv(ptr noundef readonly captures(none) %0, i64 %1, ptr noundef readonly captures(none) %2) #0 {
  %4 = alloca %"struct.libunwind::EHHeaderParser<libunwind::LocalAddressSpace>::EHHeaderInfo", align 8
  %5 = getelementptr inbounds nuw i8, ptr %0, i64 24
  %6 = load i16, ptr %5, align 8, !tbaa !135
  %7 = icmp eq i16 %6, 0
  br i1 %7, label %.critedge, label %8

8:                                                ; preds = %3
  %9 = getelementptr inbounds nuw i8, ptr %2, i64 16
  %10 = load i64, ptr %9, align 8, !tbaa !98
  %11 = load i64, ptr %0, align 8, !tbaa !138
  %12 = icmp ult i64 %10, %11
  br i1 %12, label %.critedge, label %.preheader

.preheader:                                       ; preds = %8
  %13 = getelementptr inbounds nuw i8, ptr %0, i64 16
  %14 = load ptr, ptr %13, align 8, !tbaa !139
  %wide.trip.count = zext i16 %6 to i64
  br label %15

15:                                               ; preds = %.preheader, %28
  %indvars.iv = phi i64 [ 0, %.preheader ], [ %indvars.iv.next, %28 ]
  %16 = getelementptr inbounds nuw %struct.Elf64_Phdr, ptr %14, i64 %indvars.iv
  %17 = load i32, ptr %16, align 8, !tbaa !140
  %18 = icmp eq i32 %17, 1
  br i1 %18, label %19, label %28

19:                                               ; preds = %15
  %20 = getelementptr inbounds nuw i8, ptr %16, i64 16
  %21 = load i64, ptr %20, align 8, !tbaa !142
  %22 = add i64 %21, %11
  %.not.i = icmp ult i64 %10, %22
  br i1 %.not.i, label %28, label %23

23:                                               ; preds = %19
  %24 = getelementptr inbounds nuw i8, ptr %16, i64 40
  %25 = load i64, ptr %24, align 8, !tbaa !143
  %26 = add i64 %25, %22
  %27 = icmp ult i64 %10, %26
  br i1 %27, label %29, label %28

28:                                               ; preds = %15, %23, %19
  %indvars.iv.next = add nuw nsw i64 %indvars.iv, 1
  %exitcond.not = icmp eq i64 %indvars.iv.next, %wide.trip.count
  br i1 %exitcond.not, label %.critedge, label %15, !llvm.loop !144

29:                                               ; preds = %23
  %30 = getelementptr inbounds nuw i8, ptr %2, i64 8
  %31 = load ptr, ptr %30, align 8, !tbaa !97
  store i64 %22, ptr %31, align 8, !tbaa !84
  %32 = getelementptr inbounds nuw i8, ptr %31, i64 8
  store i64 %25, ptr %32, align 8, !tbaa !87
  br label %33

33:                                               ; preds = %29, %_ZN9libunwindL25checkForUnwindInfoSegmentEPK10Elf64_PhdrmPNS_18dl_iterate_cb_dataE.exit.thread
  %indvars.iv48 = phi i64 [ %wide.trip.count, %29 ], [ %indvars.iv.next49, %_ZN9libunwindL25checkForUnwindInfoSegmentEPK10Elf64_PhdrmPNS_18dl_iterate_cb_dataE.exit.thread ]
  %34 = load ptr, ptr %13, align 8, !tbaa !139
  %35 = add nuw nsw i64 %indvars.iv48, 4294967295
  %36 = and i64 %35, 4294967295
  %37 = getelementptr inbounds nuw %struct.Elf64_Phdr, ptr %34, i64 %36
  %38 = load i32, ptr %37, align 8, !tbaa !140
  %39 = icmp eq i32 %38, 1685382480
  br i1 %39, label %40, label %_ZN9libunwindL25checkForUnwindInfoSegmentEPK10Elf64_PhdrmPNS_18dl_iterate_cb_dataE.exit.thread

40:                                               ; preds = %33
  call void @llvm.lifetime.start.p0(i64 32, ptr nonnull %4) #15
  %41 = getelementptr inbounds nuw i8, ptr %37, i64 16
  %42 = load i64, ptr %41, align 8, !tbaa !142
  %43 = add i64 %42, %11
  %44 = load ptr, ptr %30, align 8, !tbaa !97
  %45 = getelementptr inbounds nuw i8, ptr %44, i64 32
  store i64 %43, ptr %45, align 8, !tbaa !88
  %46 = getelementptr inbounds nuw i8, ptr %37, i64 40
  %47 = load i64, ptr %46, align 8, !tbaa !143
  %48 = getelementptr inbounds nuw i8, ptr %44, i64 40
  store i64 %47, ptr %48, align 8, !tbaa !89
  %49 = load ptr, ptr %2, align 8, !tbaa !94
  %50 = add i64 %47, %43
  %51 = call noundef zeroext i1 @_ZN9libunwind14EHHeaderParserINS_17LocalAddressSpaceEE11decodeEHHdrERS1_mmRNS2_12EHHeaderInfoE(ptr noundef nonnull align 1 dereferenceable(1) %49, i64 noundef %43, i64 noundef %50, ptr noundef nonnull align 8 dereferenceable(32) %4)
  br i1 %51, label %52, label %_ZN9libunwindL25checkForUnwindInfoSegmentEPK10Elf64_PhdrmPNS_18dl_iterate_cb_dataE.exit

_ZN9libunwindL25checkForUnwindInfoSegmentEPK10Elf64_PhdrmPNS_18dl_iterate_cb_dataE.exit: ; preds = %40
  call void @llvm.lifetime.end.p0(i64 32, ptr nonnull %4) #15
  br label %_ZN9libunwindL25checkForUnwindInfoSegmentEPK10Elf64_PhdrmPNS_18dl_iterate_cb_dataE.exit.thread

52:                                               ; preds = %40
  %53 = load i64, ptr %4, align 8, !tbaa !90
  %54 = load ptr, ptr %30, align 8, !tbaa !97
  %55 = getelementptr inbounds nuw i8, ptr %54, i64 16
  store i64 %53, ptr %55, align 8, !tbaa !92
  %56 = getelementptr inbounds nuw i8, ptr %54, i64 24
  store i64 -1, ptr %56, align 8, !tbaa !93
  call void @llvm.lifetime.end.p0(i64 32, ptr nonnull %4) #15
  br label %.critedge

_ZN9libunwindL25checkForUnwindInfoSegmentEPK10Elf64_PhdrmPNS_18dl_iterate_cb_dataE.exit.thread: ; preds = %33, %_ZN9libunwindL25checkForUnwindInfoSegmentEPK10Elf64_PhdrmPNS_18dl_iterate_cb_dataE.exit
  %indvars.iv.next49 = add nsw i64 %indvars.iv48, -1
  %57 = and i64 %indvars.iv.next49, 65535
  %.not.not.not = icmp eq i64 %57, 0
  br i1 %.not.not.not, label %.critedge, label %33, !llvm.loop !145

.critedge:                                        ; preds = %28, %_ZN9libunwindL25checkForUnwindInfoSegmentEPK10Elf64_PhdrmPNS_18dl_iterate_cb_dataE.exit.thread, %52, %3, %8
  %.0 = phi i32 [ 0, %8 ], [ 0, %3 ], [ 1, %52 ], [ 0, %_ZN9libunwindL25checkForUnwindInfoSegmentEPK10Elf64_PhdrmPNS_18dl_iterate_cb_dataE.exit.thread ], [ 0, %28 ]
  ret i32 %.0
}